target datalayout = "e-m:e-p270:32:32-p271:32:32-p272:64:64-i64:64-i128:128-f80:128-n8:16:32:64-S128"
target triple = "x86_64-pc-linux-gnu"

; Function Attrs: nounwind uwtable
define i32 @Cnf_SopCountLiterals(ptr noundef %0, i32 noundef %1) #0 {
  %3 = alloca ptr, align 8
  %4 = alloca i32, align 4
  %5 = alloca i32, align 4
  %6 = alloca i32, align 4
  %7 = alloca i32, align 4
  %8 = alloca i32, align 4
  store ptr %0, ptr %3, align 8, !tbaa !51
  store i32 %1, ptr %4, align 4, !tbaa !19
  call void @llvm.lifetime.start.p0(i64 4, ptr %5) #8
  store i32 0, ptr %5, align 4, !tbaa !19
  call void @llvm.lifetime.start.p0(i64 4, ptr %6) #8
  call void @llvm.lifetime.start.p0(i64 4, ptr %7) #8
  call void @llvm.lifetime.start.p0(i64 4, ptr %8) #8
  store i32 0, ptr %7, align 4, !tbaa !19
  br label %9

9:                                                ; preds = %37, %2
  %10 = load i32, ptr %7, align 4, !tbaa !19
  %11 = load i32, ptr %4, align 4, !tbaa !19
  %12 = icmp slt i32 %10, %11
  br i1 %12, label %13, label %40

13:                                               ; preds = %9
  %14 = load ptr, ptr %3, align 8, !tbaa !51
  %15 = load i32, ptr %7, align 4, !tbaa !19
  %16 = sext i32 %15 to i64
  %17 = getelementptr inbounds i8, ptr %14, i64 %16
  %18 = load i8, ptr %17, align 1, !tbaa !48
  %19 = sext i8 %18 to i32
  store i32 %19, ptr %6, align 4, !tbaa !19
  store i32 0, ptr %8, align 4, !tbaa !19
  br label %20

20:                                               ; preds = %33, %13
  %21 = load i32, ptr %8, align 4, !tbaa !19
  %22 = icmp slt i32 %21, 4
  br i1 %22, label %23, label %36

23:                                               ; preds = %20
  %24 = load i32, ptr %6, align 4, !tbaa !19
  %25 = srem i32 %24, 3
  %26 = icmp ne i32 %25, 2
  br i1 %26, label %27, label %30

27:                                               ; preds = %23
  %28 = load i32, ptr %5, align 4, !tbaa !19
  %29 = add nsw i32 %28, 1
  store i32 %29, ptr %5, align 4, !tbaa !19
  br label %30

30:                                               ; preds = %27, %23
  %31 = load i32, ptr %6, align 4, !tbaa !19
  %32 = sdiv i32 %31, 3
  store i32 %32, ptr %6, align 4, !tbaa !19
  br label %33

33:                                               ; preds = %30
  %34 = load i32, ptr %8, align 4, !tbaa !19
  %35 = add nsw i32 %34, 1
  store i32 %35, ptr %8, align 4, !tbaa !19
  br label %20, !llvm.loop !55

36:                                               ; preds = %20
  br label %37

37:                                               ; preds = %36
  %38 = load i32, ptr %7, align 4, !tbaa !19
  %39 = add nsw i32 %38, 1
  store i32 %39, ptr %7, align 4, !tbaa !19
  br label %9, !llvm.loop !56

40:                                               ; preds = %9
  %41 = load i32, ptr %5, align 4, !tbaa !19
  call void @llvm.lifetime.end.p0(i64 4, ptr %8) #8
  call void @llvm.lifetime.end.p0(i64 4, ptr %7) #8
  call void @llvm.lifetime.end.p0(i64 4, ptr %6) #8
  call void @llvm.lifetime.end.p0(i64 4, ptr %5) #8
  ret i32 %41
}