; Function Attrs: nofree norecurse nosync nounwind memory(argmem: read) uwtable
define i32 @Cnf_SopCountLiterals(ptr noundef readonly captures(none) %0, i32 noundef %1) local_unnamed_addr #2 {
  %3 = icmp sgt i32 %1, 0
  br i1 %3, label %.lr.ph.preheader, label %._crit_edge

.lr.ph.preheader:                                 ; preds = %2
  %wide.trip.count = zext nneg i32 %1 to i64
  br label %.lr.ph

.lr.ph:                                           ; preds = %.lr.ph.preheader, %12
  %indvars.iv = phi i64 [ 0, %.lr.ph.preheader ], [ %indvars.iv.next, %12 ]
  %.01216 = phi i32 [ 0, %.lr.ph.preheader ], [ %spec.select, %12 ]
  %4 = getelementptr inbounds nuw i8, ptr %0, i64 %indvars.iv
  %5 = load i8, ptr %4, align 1, !tbaa !33
  %6 = sext i8 %5 to i32
  br label %7

7:                                                ; preds = %.lr.ph, %7
  %.015 = phi i32 [ 0, %.lr.ph ], [ %11, %7 ]
  %.01114 = phi i32 [ %6, %.lr.ph ], [ %10, %7 ]
  %.113 = phi i32 [ %.01216, %.lr.ph ], [ %spec.select, %7 ]
  %8 = srem i32 %.01114, 3
  %.not = icmp ne i32 %8, 2
  %9 = zext i1 %.not to i32
  %spec.select = add nsw i32 %.113, %9
  %10 = sdiv i32 %.01114, 3
  %11 = add nuw nsw i32 %.015, 1
  %exitcond.not = icmp eq i32 %11, 4
  br i1 %exitcond.not, label %12, label %7, !llvm.loop !46

12:                                               ; preds = %7
  %indvars.iv.next = add nuw nsw i64 %indvars.iv, 1
  %exitcond19.not = icmp eq i64 %indvars.iv.next, %wide.trip.count
  br i1 %exitcond19.not, label %._crit_edge, label %.lr.ph, !llvm.loop !47

._crit_edge:                                      ; preds = %12, %2
  %.012.lcssa = phi i32 [ 0, %2 ], [ %spec.select, %12 ]
  ret i32 %.012.lcssa
}